target datalayout = "e-m:e-p270:32:32-p271:32:32-p272:64:64-i64:64-i128:128-f80:128-n8:16:32:64-S128"
target triple = "x86_64-pc-linux-gnu"

%"struct.(anonymous namespace)::NinjaMain" = type { %struct.BuildLogUser, ptr, ptr, %struct.State, %struct.RealDiskInterface, %"class.std::__cxx11::basic_string", %struct.BuildLog, %struct.DepsLog, i64 }
%struct.BuildLogUser = type { ptr }
%struct.State = type { %"class.std::unordered_map", %"class.std::map", %"class.std::vector", %struct.BindingEnv, %"class.std::vector.25" }
%"class.std::unordered_map" = type { %"class.std::_Hashtable" }
%"class.std::_Hashtable" = type { ptr, i64, %"struct.std::__detail::_Hash_node_base", i64, %"struct.std::__detail::_Prime_rehash_policy", ptr }
%"struct.std::__detail::_Hash_node_base" = type { ptr }
%"struct.std::__detail::_Prime_rehash_policy" = type { float, i64 }
%"class.std::map" = type { %"class.std::_Rb_tree" }
%"class.std::_Rb_tree" = type { %"struct.std::_Rb_tree<std::__cxx11::basic_string<char>, std::pair<const std::__cxx11::basic_string<char>, Pool *>, std::_Select1st<std::pair<const std::__cxx11::basic_string<char>, Pool *>>, std::less<std::__cxx11::basic_string<char>>>::_Rb_tree_impl" }
%"struct.std::_Rb_tree<std::__cxx11::basic_string<char>, std::pair<const std::__cxx11::basic_string<char>, Pool *>, std::_Select1st<std::pair<const std::__cxx11::basic_string<char>, Pool *>>, std::less<std::__cxx11::basic_string<char>>>::_Rb_tree_impl" = type { %"struct.std::_Rb_tree_key_compare", %"struct.std::_Rb_tree_header" }
%"struct.std::_Rb_tree_key_compare" = type { %"struct.std::less" }
%"struct.std::less" = type { i8 }
%"struct.std::_Rb_tree_header" = type { %"struct.std::_Rb_tree_node_base", i64 }
%"struct.std::_Rb_tree_node_base" = type { i32, ptr, ptr, ptr }
%"class.std::vector" = type { %"struct.std::_Vector_base" }
%"struct.std::_Vector_base" = type { %"struct.std::_Vector_base<Edge *, std::allocator<Edge *>>::_Vector_impl" }
%"struct.std::_Vector_base<Edge *, std::allocator<Edge *>>::_Vector_impl" = type { %"struct.std::_Vector_base<Edge *, std::allocator<Edge *>>::_Vector_impl_data" }
%"struct.std::_Vector_base<Edge *, std::allocator<Edge *>>::_Vector_impl_data" = type { ptr, ptr, ptr }
%struct.BindingEnv = type { %struct.Env, %"class.std::map.15", %"class.std::map.20", ptr }
%struct.Env = type { ptr }
%"class.std::map.15" = type { %"class.std::_Rb_tree.16" }
%"class.std::_Rb_tree.16" = type { %"struct.std::_Rb_tree<std::__cxx11::basic_string<char>, std::pair<const std::__cxx11::basic_string<char>, std::__cxx11::basic_string<char>>, std::_Select1st<std::pair<const std::__cxx11::basic_string<char>, std::__cxx11::basic_string<char>>>, std::less<std::__cxx11::basic_string<char>>>::_Rb_tree_impl" }
%"struct.std::_Rb_tree<std::__cxx11::basic_string<char>, std::pair<const std::__cxx11::basic_string<char>, std::__cxx11::basic_string<char>>, std::_Select1st<std::pair<const std::__cxx11::basic_string<char>, std::__cxx11::basic_string<char>>>, std::less<std::__cxx11::basic_string<char>>>::_Rb_tree_impl" = type { %"struct.std::_Rb_tree_key_compare", %"struct.std::_Rb_tree_header" }
%"class.std::map.20" = type { %"class.std::_Rb_tree.21" }
%"class.std::_Rb_tree.21" = type { %"struct.std::_Rb_tree<std::__cxx11::basic_string<char>, std::pair<const std::__cxx11::basic_string<char>, const Rule *>, std::_Select1st<std::pair<const std::__cxx11::basic_string<char>, const Rule *>>, std::less<std::__cxx11::basic_string<char>>>::_Rb_tree_impl" }
%"struct.std::_Rb_tree<std::__cxx11::basic_string<char>, std::pair<const std::__cxx11::basic_string<char>, const Rule *>, std::_Select1st<std::pair<const std::__cxx11::basic_string<char>, const Rule *>>, std::less<std::__cxx11::basic_string<char>>>::_Rb_tree_impl" = type { %"struct.std::_Rb_tree_key_compare", %"struct.std::_Rb_tree_header" }
%"class.std::vector.25" = type { %"struct.std::_Vector_base.26" }
%"struct.std::_Vector_base.26" = type { %"struct.std::_Vector_base<Node *, std::allocator<Node *>>::_Vector_impl" }
%"struct.std::_Vector_base<Node *, std::allocator<Node *>>::_Vector_impl" = type { %"struct.std::_Vector_base<Node *, std::allocator<Node *>>::_Vector_impl_data" }
%"struct.std::_Vector_base<Node *, std::allocator<Node *>>::_Vector_impl_data" = type { ptr, ptr, ptr }
%struct.RealDiskInterface = type { %struct.DiskInterface }
%struct.DiskInterface = type { %struct.FileReader }
%struct.FileReader = type { ptr }
%"class.std::__cxx11::basic_string" = type { %"struct.std::__cxx11::basic_string<char>::_Alloc_hider", i64, %union.anon }
%"struct.std::__cxx11::basic_string<char>::_Alloc_hider" = type { ptr }
%union.anon = type { i64, [8 x i8] }
%struct.BuildLog = type <{ %"class.std::unordered_map.30", ptr, %"class.std::__cxx11::basic_string", i8, [7 x i8] }>
%"class.std::unordered_map.30" = type { %"class.std::_Hashtable.31" }
%"class.std::_Hashtable.31" = type { ptr, i64, %"struct.std::__detail::_Hash_node_base", i64, %"struct.std::__detail::_Prime_rehash_policy", ptr }
%struct.DepsLog = type { i8, ptr, %"class.std::__cxx11::basic_string", %"class.std::vector.25", %"class.std::vector.44" }
%"class.std::vector.44" = type { %"struct.std::_Vector_base.45" }
%"struct.std::_Vector_base.45" = type { %"struct.std::_Vector_base<DepsLog::Deps *, std::allocator<DepsLog::Deps *>>::_Vector_impl" }
%"struct.std::_Vector_base<DepsLog::Deps *, std::allocator<DepsLog::Deps *>>::_Vector_impl" = type { %"struct.std::_Vector_base<DepsLog::Deps *, std::allocator<DepsLog::Deps *>>::_Vector_impl_data" }
%"struct.std::_Vector_base<DepsLog::Deps *, std::allocator<DepsLog::Deps *>>::_Vector_impl_data" = type { ptr, ptr, ptr }
%struct.DyndepLoader = type { ptr, ptr }
%struct.Cleaner = type <{ ptr, ptr, %struct.DyndepLoader, %"class.std::set", %"class.std::set.63", i32, [4 x i8], ptr, i32, [4 x i8] }>
%"class.std::set" = type { %"class.std::_Rb_tree.59" }
%"class.std::_Rb_tree.59" = type { %"struct.std::_Rb_tree<std::__cxx11::basic_string<char>, std::__cxx11::basic_string<char>, std::_Identity<std::__cxx11::basic_string<char>>, std::less<std::__cxx11::basic_string<char>>>::_Rb_tree_impl" }
%"struct.std::_Rb_tree<std::__cxx11::basic_string<char>, std::__cxx11::basic_string<char>, std::_Identity<std::__cxx11::basic_string<char>>, std::less<std::__cxx11::basic_string<char>>>::_Rb_tree_impl" = type { %"struct.std::_Rb_tree_key_compare", %"struct.std::_Rb_tree_header" }
%"class.std::set.63" = type { %"class.std::_Rb_tree.64" }
%"class.std::_Rb_tree.64" = type { %"struct.std::_Rb_tree<Node *, Node *, std::_Identity<Node *>, std::less<Node *>>::_Rb_tree_impl" }
%"struct.std::_Rb_tree<Node *, Node *, std::_Identity<Node *>, std::less<Node *>>::_Rb_tree_impl" = type { %"struct.std::_Rb_tree_key_compare.68", %"struct.std::_Rb_tree_header" }
%"struct.std::_Rb_tree_key_compare.68" = type { %"struct.std::less.69" }
%"struct.std::less.69" = type { i8 }

@optind = external global i32, align 4
@.str.57 = private unnamed_addr constant [4 x i8] c"hgr\00", align 1
@.str.58 = private unnamed_addr constant [175 x i8] c"usage: ninja -t clean [options] [targets]\0A\0Aoptions:\0A  -g     also clean files marked as ninja generator output\0A  -r     interpret targets as a list of rules to clean instead\0A\00", align 1
@.str.59 = private unnamed_addr constant [25 x i8] c"expected a rule to clean\00", align 1

; Function Attrs: mustprogress uwtable
define internal noundef i32 @_ZN12_GLOBAL__N_19NinjaMain9ToolCleanEPKNS_7OptionsEiPPc(ptr noundef nonnull align 8 dereferenceable(536) %0, ptr noundef %1, i32 noundef %2, ptr noundef %3) #2 align 2 personality ptr @__gxx_personality_v0 {
  %5 = alloca i32, align 4
  %6 = alloca ptr, align 8
  %7 = alloca ptr, align 8
  %8 = alloca i32, align 4
  %9 = alloca ptr, align 8
  %10 = alloca i8, align 1
  %11 = alloca i8, align 1
  %12 = alloca i32, align 4
  %13 = alloca %struct.Cleaner, align 8
  %14 = alloca ptr, align 8
  %15 = alloca i32, align 4
  %16 = alloca i32, align 4
  store ptr %0, ptr %6, align 8
  store ptr %1, ptr %7, align 8
  store i32 %2, ptr %8, align 4
  store ptr %3, ptr %9, align 8
  %17 = load ptr, ptr %6, align 8
  %18 = load i32, ptr %8, align 4
  %19 = add nsw i32 %18, 1
  store i32 %19, ptr %8, align 4
  %20 = load ptr, ptr %9, align 8
  %21 = getelementptr inbounds ptr, ptr %20, i32 -1
  store ptr %21, ptr %9, align 8
  store i8 0, ptr %10, align 1
  store i8 0, ptr %11, align 1
  store i32 1, ptr @optind, align 4
  br label %22

22:                                               ; preds = %34, %4
  %23 = load i32, ptr %8, align 4
  %24 = load ptr, ptr %9, align 8
  %25 = call i32 @getopt(i32 noundef %23, ptr noundef %24, ptr noundef @.str.57) #17
  store i32 %25, ptr %12, align 4
  %26 = icmp ne i32 %25, -1
  br i1 %26, label %27, label %35

27:                                               ; preds = %22
  %28 = load i32, ptr %12, align 4
  switch i32 %28, label %32 [
    i32 103, label %29
    i32 114, label %30
    i32 104, label %31
  ]

29:                                               ; preds = %27
  store i8 1, ptr %10, align 1
  br label %34

30:                                               ; preds = %27
  store i8 1, ptr %11, align 1
  br label %34

31:                                               ; preds = %27
  br label %32

32:                                               ; preds = %31, %27
  %33 = call i32 (ptr, ...) @printf(ptr noundef @.str.58)
  store i32 1, ptr %5, align 4
  br label %79

34:                                               ; preds = %30, %29
  br label %22, !llvm.loop !13

35:                                               ; preds = %22
  %36 = load i32, ptr @optind, align 4
  %37 = load ptr, ptr %9, align 8
  %38 = sext i32 %36 to i64
  %39 = getelementptr inbounds ptr, ptr %37, i64 %38
  store ptr %39, ptr %9, align 8
  %40 = load i32, ptr @optind, align 4
  %41 = load i32, ptr %8, align 4
  %42 = sub nsw i32 %41, %40
  store i32 %42, ptr %8, align 4
  %43 = load i8, ptr %11, align 1
  %44 = trunc i8 %43 to i1
  br i1 %44, label %45, label %49

45:                                               ; preds = %35
  %46 = load i32, ptr %8, align 4
  %47 = icmp eq i32 %46, 0
  br i1 %47, label %48, label %49

48:                                               ; preds = %45
  call void (ptr, ...) @_Z5ErrorPKcz(ptr noundef @.str.59)
  store i32 1, ptr %5, align 4
  br label %79

49:                                               ; preds = %45, %35
  %50 = getelementptr inbounds %"struct.(anonymous namespace)::NinjaMain", ptr %17, i32 0, i32 3
  %51 = getelementptr inbounds %"struct.(anonymous namespace)::NinjaMain", ptr %17, i32 0, i32 2
  %52 = load ptr, ptr %51, align 8
  %53 = getelementptr inbounds %"struct.(anonymous namespace)::NinjaMain", ptr %17, i32 0, i32 4
  call void @_ZN7CleanerC1EP5StateRK11BuildConfigP13DiskInterface(ptr noundef nonnull align 8 dereferenceable(148) %13, ptr noundef %50, ptr noundef nonnull align 8 dereferenceable(25) %52, ptr noundef %53)
  %54 = load i32, ptr %8, align 4
  %55 = icmp sge i32 %54, 1
  br i1 %55, label %56, label %73

56:                                               ; preds = %49
  %57 = load i8, ptr %11, align 1
  %58 = trunc i8 %57 to i1
  br i1 %58, label %59, label %68

59:                                               ; preds = %56
  %60 = load i32, ptr %8, align 4
  %61 = load ptr, ptr %9, align 8
  %62 = invoke noundef i32 @_ZN7Cleaner10CleanRulesEiPPc(ptr noundef nonnull align 8 dereferenceable(148) %13, i32 noundef %60, ptr noundef %61)
          to label %63 unwind label %64

63:                                               ; preds = %59
  store i32 %62, ptr %5, align 4
  store i32 1, ptr %16, align 4
  br label %78

64:                                               ; preds = %73, %68, %59
  %65 = landingpad { ptr, i32 }
          cleanup
  %66 = extractvalue { ptr, i32 } %65, 0
  store ptr %66, ptr %14, align 8
  %67 = extractvalue { ptr, i32 } %65, 1
  store i32 %67, ptr %15, align 4
  call void @_ZN7CleanerD2Ev(ptr noundef nonnull align 8 dereferenceable(148) %13) #17
  br label %81

68:                                               ; preds = %56
  %69 = load i32, ptr %8, align 4
  %70 = load ptr, ptr %9, align 8
  %71 = invoke noundef i32 @_ZN7Cleaner12CleanTargetsEiPPc(ptr noundef nonnull align 8 dereferenceable(148) %13, i32 noundef %69, ptr noundef %70)
          to label %72 unwind label %64

72:                                               ; preds = %68
  store i32 %71, ptr %5, align 4
  store i32 1, ptr %16, align 4
  br label %78

73:                                               ; preds = %49
  %74 = load i8, ptr %10, align 1
  %75 = trunc i8 %74 to i1
  %76 = invoke noundef i32 @_ZN7Cleaner8CleanAllEb(ptr noundef nonnull align 8 dereferenceable(148) %13, i1 noundef zeroext %75)
          to label %77 unwind label %64

77:                                               ; preds = %73
  store i32 %76, ptr %5, align 4
  store i32 1, ptr %16, align 4
  br label %78

78:                                               ; preds = %77, %72, %63
  call void @_ZN7CleanerD2Ev(ptr noundef nonnull align 8 dereferenceable(148) %13) #17
  br label %79

79:                                               ; preds = %78, %48, %32
  %80 = load i32, ptr %5, align 4
  ret i32 %80

81:                                               ; preds = %64
  %82 = load ptr, ptr %14, align 8
  %83 = load i32, ptr %15, align 4
  %84 = insertvalue { ptr, i32 } poison, ptr %82, 0
  %85 = insertvalue { ptr, i32 } %84, i32 %83, 1
  resume { ptr, i32 } %85
}