; Function Attrs: mustprogress uwtable
define internal noundef i32 @_ZN12_GLOBAL__N_19NinjaMain9ToolCleanEPKNS_7OptionsEiPPc(ptr noundef nonnull align 8 dereferenceable(536) %0, ptr nocapture readnone %1, i32 noundef %2, ptr noundef %3) #12 align 2 personality ptr @__gxx_personality_v0 {
  %5 = alloca %struct.Cleaner, align 8
  %6 = add nsw i32 %2, 1
  %7 = getelementptr inbounds i8, ptr %3, i64 -8
  store i32 1, ptr @optind, align 4
  br label %.outer

.outer:                                           ; preds = %9, %4
  %8 = phi i1 [ false, %4 ], [ true, %9 ]
  %.020.ph = phi i8 [ 0, %4 ], [ %.020, %9 ]
  br label %9

9:                                                ; preds = %.outer, %11
  %.020 = phi i8 [ 1, %11 ], [ %.020.ph, %.outer ]
  %10 = tail call i32 @getopt(i32 noundef %6, ptr noundef nonnull %7, ptr noundef nonnull @.str.57) #26
  switch i32 %10, label %12 [
    i32 -1, label %13
    i32 103, label %.outer
    i32 114, label %11
  ], !llvm.loop !15

11:                                               ; preds = %9
  br label %9, !llvm.loop !15

12:                                               ; preds = %9
  %puts = tail call i32 @puts(ptr nonnull dereferenceable(1) @str.3)
  br label %_ZN7CleanerD2Ev.exit

13:                                               ; preds = %9
  %14 = load i32, ptr @optind, align 4
  %15 = sext i32 %14 to i64
  %16 = getelementptr inbounds ptr, ptr %7, i64 %15
  %17 = sub nsw i32 %6, %14
  %18 = icmp ne i8 %.020, 0
  %19 = icmp eq i32 %6, %14
  %or.cond = select i1 %18, i1 %19, i1 false
  br i1 %or.cond, label %20, label %21

20:                                               ; preds = %13
  tail call void (ptr, ...) @_Z5ErrorPKcz(ptr noundef nonnull @.str.59)
  br label %_ZN7CleanerD2Ev.exit

21:                                               ; preds = %13
  %22 = getelementptr inbounds i8, ptr %0, i64 24
  %23 = getelementptr inbounds i8, ptr %0, i64 16
  %24 = load ptr, ptr %23, align 8
  %25 = getelementptr inbounds i8, ptr %0, i64 288
  call void @_ZN7CleanerC1EP5StateRK11BuildConfigP13DiskInterface(ptr noundef nonnull align 8 dereferenceable(148) %5, ptr noundef nonnull %22, ptr noundef nonnull align 8 dereferenceable(25) %24, ptr noundef nonnull %25)
  %26 = icmp sgt i32 %17, 0
  br i1 %26, label %27, label %34

27:                                               ; preds = %21
  br i1 %18, label %28, label %32

28:                                               ; preds = %27
  %29 = invoke noundef i32 @_ZN7Cleaner10CleanRulesEiPPc(ptr noundef nonnull align 8 dereferenceable(148) %5, i32 noundef %17, ptr noundef nonnull %16)
          to label %36 unwind label %30

30:                                               ; preds = %34, %32, %28
  %31 = landingpad { ptr, i32 }
          cleanup
  call void @_ZN7CleanerD2Ev(ptr noundef nonnull align 8 dereferenceable(148) %5) #26
  resume { ptr, i32 } %31

32:                                               ; preds = %27
  %33 = invoke noundef i32 @_ZN7Cleaner12CleanTargetsEiPPc(ptr noundef nonnull align 8 dereferenceable(148) %5, i32 noundef %17, ptr noundef nonnull %16)
          to label %36 unwind label %30

34:                                               ; preds = %21
  %35 = invoke noundef i32 @_ZN7Cleaner8CleanAllEb(ptr noundef nonnull align 8 dereferenceable(148) %5, i1 noundef zeroext %8)
          to label %36 unwind label %30

36:                                               ; preds = %34, %32, %28
  %.0 = phi i32 [ %29, %28 ], [ %33, %32 ], [ %35, %34 ]
  %37 = getelementptr inbounds i8, ptr %5, i64 80
  %38 = getelementptr inbounds i8, ptr %5, i64 96
  %39 = load ptr, ptr %38, align 8
  invoke void @_ZNSt8_Rb_treeIP4NodeS1_St9_IdentityIS1_ESt4lessIS1_ESaIS1_EE8_M_eraseEPSt13_Rb_tree_nodeIS1_E(ptr noundef nonnull align 8 dereferenceable(48) %37, ptr noundef %39)
          to label %_ZNSt3setIP4NodeSt4lessIS1_ESaIS1_EED2Ev.exit.i unwind label %40

40:                                               ; preds = %36
  %41 = landingpad { ptr, i32 }
          catch ptr null
  %42 = extractvalue { ptr, i32 } %41, 0
  call void @__clang_call_terminate(ptr %42) #30
  unreachable

_ZNSt3setIP4NodeSt4lessIS1_ESaIS1_EED2Ev.exit.i:  ; preds = %36
  %43 = getelementptr inbounds i8, ptr %5, i64 32
  %44 = getelementptr inbounds i8, ptr %5, i64 48
  %45 = load ptr, ptr %44, align 8
  invoke void @_ZNSt8_Rb_treeINSt7__cxx1112basic_stringIcSt11char_traitsIcESaIcEEES5_St9_IdentityIS5_ESt4lessIS5_ESaIS5_EE8_M_eraseEPSt13_Rb_tree_nodeIS5_E(ptr noundef nonnull align 8 dereferenceable(48) %43, ptr noundef %45)
          to label %_ZN7CleanerD2Ev.exit unwind label %46

46:                                               ; preds = %_ZNSt3setIP4NodeSt4lessIS1_ESaIS1_EED2Ev.exit.i
  %47 = landingpad { ptr, i32 }
          catch ptr null
  %48 = extractvalue { ptr, i32 } %47, 0
  call void @__clang_call_terminate(ptr %48) #30
  unreachable

_ZN7CleanerD2Ev.exit:                             ; preds = %_ZNSt3setIP4NodeSt4lessIS1_ESaIS1_EED2Ev.exit.i, %20, %12
  %.1 = phi i32 [ 1, %12 ], [ 1, %20 ], [ %.0, %_ZNSt3setIP4NodeSt4lessIS1_ESaIS1_EED2Ev.exit.i ]
  ret i32 %.1
}